; Function Attrs: nounwind uwtable
define dso_local void @report_backup_error(ptr noundef captures(none) initializes((35, 36)) %0, ptr noalias noundef %1, ...) local_unnamed_addr #0 {
  %3 = alloca [1 x %struct.__va_list_tag], align 16
  call void @llvm.lifetime.start.p0(i64 24, ptr nonnull %3) #21
  call void @llvm.va_start.p0(ptr nonnull %3)
  call void @pg_log_generic_v(i32 noundef 4, i32 noundef 0, ptr noundef %1, ptr noundef nonnull %3) #21
  call void @llvm.va_end.p0(ptr nonnull %3)
  %4 = getelementptr inbounds nuw i8, ptr %0, i64 35
  store i8 1, ptr %4, align 1
  %5 = getelementptr inbounds nuw i8, ptr %0, i64 34
  %6 = load i8, ptr %5, align 2, !range !14, !noundef !15
  %7 = trunc nuw i8 %6 to i1
  br i1 %7, label %8, label %9

8:                                                ; preds = %2
  call void @exit(i32 noundef 1) #24
  unreachable

9:                                                ; preds = %2
  call void @llvm.lifetime.end.p0(i64 24, ptr nonnull %3) #21
  ret void
}